target datalayout = "e-m:e-p270:32:32-p271:32:32-p272:64:64-i64:64-i128:128-f80:128-n8:16:32:64-S128"
target triple = "x86_64-pc-linux-gnu"

%"struct.folly::Unit" = type { i8 }
%"class.folly::IPAddressV6" = type <{ %"union.folly::IPAddressV6::AddressStorage", i16, [2 x i8] }>
%"union.folly::IPAddressV6::AddressStorage" = type { %struct.in6_addr }
%struct.in6_addr = type { %union.anon }
%union.anon = type { [4 x i32] }
%"class.folly::Unexpected" = type { i32 }
%"class.folly::Range.11" = type { ptr, ptr }
%"class.folly::Expected.14" = type { %"struct.folly::expected_detail::ExpectedStorage.base.16", [3 x i8] }
%"struct.folly::expected_detail::ExpectedStorage.base.16" = type <{ i8, [3 x i8], i32, i8 }>
%"struct.folly::expected_detail::ExpectedStorage.15" = type <{ i8, [3 x i8], i32, [4 x i8] }>

@_ZN5follyL4unitE = internal constant %"struct.folly::Unit" undef, align 1

; Function Attrs: mustprogress nounwind uwtable
define linkonce_odr void @_ZN5folly15expected_detail15ExpectedStorageINS_4UnitENS_20IPAddressFormatErrorELNS0_11StorageTypeE0EEC2IJRKS2_EEENS0_8ValueTagEDpOT_(ptr noundef nonnull align 4 dereferenceable(9) %0, ptr noundef nonnull align 1 dereferenceable(1) %1) unnamed_addr #3 comdat align 2 {
  %3 = alloca ptr, align 8
  %4 = alloca ptr, align 8
  store ptr %0, ptr %3, align 8, !tbaa !196
  store ptr %1, ptr %4, align 8, !tbaa !198
  %5 = load ptr, ptr %3, align 8
  %6 = getelementptr inbounds nuw %"struct.folly::expected_detail::ExpectedStorage.15", ptr %5, i32 0, i32 0
  store i8 1, ptr %6, align 4, !tbaa !193
  %7 = getelementptr inbounds nuw %"struct.folly::expected_detail::ExpectedStorage.15", ptr %5, i32 0, i32 2
  store i32 0, ptr %7, align 4, !tbaa !200
  ret void
}

; Function Attrs: mustprogress nounwind uwtable
define linkonce_odr void @_ZN5folly15expected_detail15ExpectedStorageINS_4UnitENS_20IPAddressFormatErrorELNS0_11StorageTypeE0EEC2IJS3_EEENS0_8ErrorTagEDpOT_(ptr noundef nonnull align 4 dereferenceable(9) %0, ptr noundef nonnull align 4 dereferenceable(4) %1) unnamed_addr #3 comdat align 2 {
  %3 = alloca ptr, align 8
  %4 = alloca ptr, align 8
  store ptr %0, ptr %3, align 8, !tbaa !196
  store ptr %1, ptr %4, align 8, !tbaa !54
  %5 = load ptr, ptr %3, align 8
  %6 = getelementptr inbounds nuw %"struct.folly::expected_detail::ExpectedStorage.15", ptr %5, i32 0, i32 0
  store i8 2, ptr %6, align 4, !tbaa !193
  %7 = getelementptr inbounds nuw %"struct.folly::expected_detail::ExpectedStorage.15", ptr %5, i32 0, i32 2
  %8 = load ptr, ptr %4, align 8, !tbaa !54
  %9 = load i32, ptr %8, align 4, !tbaa !84
  store i32 %9, ptr %7, align 4, !tbaa !200
  ret void
}

; Function Attrs: mustprogress nounwind uwtable
define linkonce_odr noundef nonnull align 4 dereferenceable(4) ptr @_ZNR5folly10UnexpectedINS_20IPAddressFormatErrorEE5errorEv(ptr noundef nonnull align 4 dereferenceable(4) %0) #3 comdat align 2 {
  %2 = alloca ptr, align 8
  store ptr %0, ptr %2, align 8, !tbaa !132
  %3 = load ptr, ptr %2, align 8
  %4 = getelementptr inbounds nuw %"class.folly::Unexpected", ptr %3, i32 0, i32 0
  ret ptr %4
}

; Function Attrs: cold mustprogress nounwind optsize uwtable
define linkonce_odr void @_ZN5folly10UnexpectedINS_20IPAddressFormatErrorEEC2EOS1_(ptr noundef nonnull align 4 dereferenceable(4) %0, ptr noundef nonnull align 4 dereferenceable(4) %1) unnamed_addr #26 comdat align 2 {
  %3 = alloca ptr, align 8
  %4 = alloca ptr, align 8
  store ptr %0, ptr %3, align 8, !tbaa !132
  store ptr %1, ptr %4, align 8, !tbaa !54
  %5 = load ptr, ptr %3, align 8
  %6 = getelementptr inbounds nuw %"class.folly::Unexpected", ptr %5, i32 0, i32 0
  %7 = load ptr, ptr %4, align 8, !tbaa !54
  %8 = load i32, ptr %7, align 4, !tbaa !84
  store i32 %8, ptr %6, align 4, !tbaa !142
  ret void
}

; Function Attrs: noinline noreturn nounwind uwtable
define linkonce_odr hidden void @__clang_call_terminate(ptr noundef %0) #5 comdat {
  %2 = call ptr @__cxa_begin_catch(ptr %0) #13
  call void @_ZSt9terminatev() #34
  unreachable
}

; Function Attrs: mustprogress nounwind uwtable
define linkonce_odr void @_ZN5folly8ExpectedINS_4UnitENS_20IPAddressFormatErrorEEC2ILb0ETnNSt9enable_ifIXooT_scbL_ZNSt17integral_constantIbLb1EE5valueEEEiE4typeELi0EEERKS1_(ptr noundef nonnull align 4 dereferenceable(12) %0, ptr noundef nonnull align 1 dereferenceable(1) %1) unnamed_addr #3 comdat align 2 {
  %3 = alloca ptr, align 8
  %4 = alloca ptr, align 8
  store ptr %0, ptr %3, align 8, !tbaa !191
  store ptr %1, ptr %4, align 8, !tbaa !198
  %5 = load ptr, ptr %3, align 8
  %6 = load ptr, ptr %4, align 8, !tbaa !198
  call void @_ZN5folly15expected_detail15ExpectedStorageINS_4UnitENS_20IPAddressFormatErrorELNS0_11StorageTypeE0EEC2IJRKS2_EEENS0_8ValueTagEDpOT_(ptr noundef nonnull align 4 dereferenceable(9) %5, ptr noundef nonnull align 1 dereferenceable(1) %6) #13
  ret void
}

; Function Attrs: mustprogress nounwind uwtable
define linkonce_odr noundef ptr @_ZNK5folly5RangeIPKhE4dataEv(ptr noundef nonnull align 8 dereferenceable(16) %0) #3 comdat align 2 {
  %2 = alloca ptr, align 8
  store ptr %0, ptr %2, align 8, !tbaa !176
  %3 = load ptr, ptr %2, align 8
  %4 = getelementptr inbounds nuw %"class.folly::Range.11", ptr %3, i32 0, i32 0
  %5 = load ptr, ptr %4, align 8, !tbaa !180
  ret ptr %5
}

; Function Attrs: mustprogress nounwind uwtable
define linkonce_odr void @_ZN5folly8ExpectedINS_4UnitENS_20IPAddressFormatErrorEEC2ILb0ETnNSt9enable_ifIXooT_scbL_ZNSt17integral_constantIbLb1EE5valueEEEiE4typeELi0EEEONS_10UnexpectedIS2_EE(ptr noundef nonnull align 4 dereferenceable(12) %0, ptr noundef nonnull align 4 dereferenceable(4) %1) unnamed_addr #3 comdat align 2 {
  %3 = alloca ptr, align 8
  %4 = alloca ptr, align 8
  store ptr %0, ptr %3, align 8, !tbaa !191
  store ptr %1, ptr %4, align 8, !tbaa !132
  %5 = load ptr, ptr %3, align 8
  %6 = load ptr, ptr %4, align 8, !tbaa !132
  %7 = call noundef nonnull align 4 dereferenceable(4) ptr @_ZNR5folly10UnexpectedINS_20IPAddressFormatErrorEE5errorEv(ptr noundef nonnull align 4 dereferenceable(4) %6)
  call void @_ZN5folly15expected_detail15ExpectedStorageINS_4UnitENS_20IPAddressFormatErrorELNS0_11StorageTypeE0EEC2IJS3_EEENS0_8ErrorTagEDpOT_(ptr noundef nonnull align 4 dereferenceable(9) %5, ptr noundef nonnull align 4 dereferenceable(4) %7) #13
  ret void
}

; Function Attrs: mustprogress uwtable
define linkonce_odr i32 @_ZN5folly14makeUnexpectedINS_20IPAddressFormatErrorEEENS_10UnexpectedINSt5decayIT_E4typeEEEOS4_(ptr noundef nonnull align 4 dereferenceable(4) %0) #0 comdat {
  %2 = alloca %"class.folly::Unexpected", align 4
  %3 = alloca ptr, align 8
  store ptr %0, ptr %3, align 8, !tbaa !54
  %4 = load ptr, ptr %3, align 8, !tbaa !54
  call void @_ZN5folly10UnexpectedINS_20IPAddressFormatErrorEEC2EOS1_(ptr noundef nonnull align 4 dereferenceable(4) %2, ptr noundef nonnull align 4 dereferenceable(4) %4) #39
  %5 = getelementptr inbounds nuw %"class.folly::Unexpected", ptr %2, i32 0, i32 0
  %6 = load i32, ptr %5, align 4
  ret i32 %6
}

; Function Attrs: mustprogress nounwind uwtable
define linkonce_odr noundef i64 @_ZNK5folly5RangeIPKhE4sizeEv(ptr noundef nonnull align 8 dereferenceable(16) %0) #3 comdat align 2 {
  %2 = alloca ptr, align 8
  store ptr %0, ptr %2, align 8, !tbaa !176
  %3 = load ptr, ptr %2, align 8
  %4 = getelementptr inbounds nuw %"class.folly::Range.11", ptr %3, i32 0, i32 1
  %5 = load ptr, ptr %4, align 8, !tbaa !182
  %6 = getelementptr inbounds nuw %"class.folly::Range.11", ptr %3, i32 0, i32 0
  %7 = load ptr, ptr %6, align 8, !tbaa !180
  %8 = ptrtoint ptr %5 to i64
  %9 = ptrtoint ptr %7 to i64
  %10 = sub i64 %8, %9
  ret i64 %10
}

; Function Attrs: mustprogress nounwind uwtable
define i64 @_ZN5folly11IPAddressV616trySetFromBinaryENS_5RangeIPKhEE(ptr noundef nonnull align 4 dereferenceable(18) %0, ptr %1, ptr %2) #3 align 2 personality ptr @__gxx_personality_v0 {
  %4 = alloca %"class.folly::Expected.14", align 4
  %5 = alloca %"class.folly::Range.11", align 8
  %6 = alloca ptr, align 8
  %7 = alloca %"class.folly::Unexpected", align 4
  %8 = alloca i32, align 4
  %9 = getelementptr inbounds nuw { ptr, ptr }, ptr %5, i32 0, i32 0
  store ptr %1, ptr %9, align 8
  %10 = getelementptr inbounds nuw { ptr, ptr }, ptr %5, i32 0, i32 1
  store ptr %2, ptr %10, align 8
  store ptr %0, ptr %6, align 8, !tbaa !7
  %11 = load ptr, ptr %6, align 8
  %12 = call noundef i64 @_ZNK5folly5RangeIPKhE4sizeEv(ptr noundef nonnull align 8 dereferenceable(16) %5)
  %13 = icmp ne i64 %12, 16
  br i1 %13, label %14, label %19

14:                                               ; preds = %3
  call void @llvm.lifetime.start.p0(i64 4, ptr %7) #13
  call void @llvm.lifetime.start.p0(i64 4, ptr %8) #13
  store i32 0, ptr %8, align 4, !tbaa !84
  %15 = invoke i32 @_ZN5folly14makeUnexpectedINS_20IPAddressFormatErrorEEENS_10UnexpectedINSt5decayIT_E4typeEEEOS4_(ptr noundef nonnull align 4 dereferenceable(4) %8)
          to label %16 unwind label %28

16:                                               ; preds = %14
  %17 = getelementptr inbounds nuw %"class.folly::Unexpected", ptr %7, i32 0, i32 0
  store i32 %15, ptr %17, align 4
  invoke void @_ZN5folly8ExpectedINS_4UnitENS_20IPAddressFormatErrorEEC2ILb0ETnNSt9enable_ifIXooT_scbL_ZNSt17integral_constantIbLb1EE5valueEEEiE4typeELi0EEEONS_10UnexpectedIS2_EE(ptr noundef nonnull align 4 dereferenceable(12) %4, ptr noundef nonnull align 4 dereferenceable(4) %7)
          to label %18 unwind label %28

18:                                               ; preds = %16
  call void @llvm.lifetime.end.p0(i64 4, ptr %8) #13
  call void @llvm.lifetime.end.p0(i64 4, ptr %7) #13
  br label %25

19:                                               ; preds = %3
  %20 = getelementptr inbounds nuw %"class.folly::IPAddressV6", ptr %11, i32 0, i32 0
  %21 = getelementptr inbounds nuw %struct.in6_addr, ptr %20, i32 0, i32 0
  %22 = invoke noundef ptr @_ZNK5folly5RangeIPKhE4dataEv(ptr noundef nonnull align 8 dereferenceable(16) %5)
          to label %23 unwind label %28

23:                                               ; preds = %19
  call void @llvm.memcpy.p0.p0.i64(ptr align 4 %21, ptr align 1 %22, i64 16, i1 false)
  %24 = getelementptr inbounds nuw %"class.folly::IPAddressV6", ptr %11, i32 0, i32 1
  store i16 0, ptr %24, align 4, !tbaa !103
  call void @_ZN5folly8ExpectedINS_4UnitENS_20IPAddressFormatErrorEEC2ILb0ETnNSt9enable_ifIXooT_scbL_ZNSt17integral_constantIbLb1EE5valueEEEiE4typeELi0EEERKS1_(ptr noundef nonnull align 4 dereferenceable(12) %4, ptr noundef nonnull align 1 dereferenceable(1) @_ZN5follyL4unitE) #13
  br label %25

25:                                               ; preds = %23, %18
  %26 = getelementptr inbounds nuw %"class.folly::Expected.14", ptr %4, i32 0, i32 0
  %27 = load i64, ptr %26, align 4
  ret i64 %27

28:                                               ; preds = %19, %16, %14
  %29 = landingpad { ptr, i32 }
          catch ptr null
  %30 = extractvalue { ptr, i32 } %29, 0
  call void @__clang_call_terminate(ptr %30) #34
  unreachable
}