; Function Attrs: mustprogress nofree norecurse nosync nounwind willreturn memory(argmem: readwrite) uwtable
define range(i64 1, 3) i64 @_ZN5folly11IPAddressV616trySetFromBinaryENS_5RangeIPKhEE(ptr noundef nonnull writeonly align 4 captures(none) dereferenceable(18) %0, ptr %1, ptr %2) local_unnamed_addr #27 align 2 personality ptr @__gxx_personality_v0 {
  %4 = ptrtoint ptr %2 to i64
  %5 = ptrtoint ptr %1 to i64
  %6 = sub i64 %4, %5
  %.not = icmp eq i64 %6, 16
  br i1 %.not, label %7, label %9

7:                                                ; preds = %3
  tail call void @llvm.memcpy.p0.p0.i64(ptr noundef nonnull align 4 dereferenceable(16) %0, ptr noundef nonnull align 1 dereferenceable(16) %1, i64 16, i1 false)
  %8 = getelementptr inbounds nuw i8, ptr %0, i64 16
  store i16 0, ptr %8, align 4, !tbaa !31
  br label %9

9:                                                ; preds = %3, %7
  %.sroa.03.0 = phi i64 [ 1, %7 ], [ 2, %3 ]
  ret i64 %.sroa.03.0
}